; Function Attrs: mustprogress nofree norecurse nosync nounwind willreturn memory(read, inaccessiblemem: none) uwtable
define hidden noundef zeroext i1 @_ZNK19maximize_bv_sharing10is_numeralEP4expr(ptr nocapture noundef nonnull readonly align 8 dereferenceable(136) %this, ptr nocapture noundef readonly %n) unnamed_addr #8 align 2 {
entry:
  %m_util = getelementptr inbounds i8, ptr %this, i64 112
  %0 = load i32, ptr %m_util, align 8
  %m_kind.i.i.i = getelementptr inbounds i8, ptr %n, i64 4
  %bf.load.i.i.i = load i32, ptr %m_kind.i.i.i, align 4
  %bf.clear.i.i.i = and i32 %bf.load.i.i.i, 65535
  %cmp.i.i = icmp eq i32 %bf.clear.i.i.i, 0
  br i1 %cmp.i.i, label %land.rhs.i.i, label %_ZNK14bv_recognizers10is_numeralEPK4expr.exit

land.rhs.i.i:                                     ; preds = %entry
  %m_decl.i.i.i = getelementptr inbounds i8, ptr %n, i64 16
  %1 = load ptr, ptr %m_decl.i.i.i, align 8
  %m_info.i.i.i.i = getelementptr inbounds i8, ptr %1, i64 24
  %2 = load ptr, ptr %m_info.i.i.i.i, align 8
  %tobool.not.i.i.i.i = icmp eq ptr %2, null
  br i1 %tobool.not.i.i.i.i, label %_ZNK14bv_recognizers10is_numeralEPK4expr.exit, label %land.rhs.i.i.i.i

land.rhs.i.i.i.i:                                 ; preds = %land.rhs.i.i
  %3 = load i32, ptr %2, align 8
  %cmp.i.i.i.i.i = icmp eq i32 %3, %0
  %m_kind.i.i.i.i.i = getelementptr inbounds i8, ptr %2, i64 4
  %4 = load i32, ptr %m_kind.i.i.i.i.i, align 4
  %cmp2.i.i.i.i.i = icmp eq i32 %4, 0
  %5 = select i1 %cmp.i.i.i.i.i, i1 %cmp2.i.i.i.i.i, i1 false
  br label %_ZNK14bv_recognizers10is_numeralEPK4expr.exit

_ZNK14bv_recognizers10is_numeralEPK4expr.exit:    ; preds = %entry, %land.rhs.i.i, %land.rhs.i.i.i.i
  %6 = phi i1 [ false, %entry ], [ false, %land.rhs.i.i ], [ %5, %land.rhs.i.i.i.i ]
  ret i1 %6
}